; Function Attrs: mustprogress null_pointer_is_valid sspstrong uwtable
define void @_ZN11ManufDialog21shortNameStateChangedEi(ptr noundef readonly align 8 captures(none) dereferenceable_or_null(168) %0, i32 noundef %1) #0 align 2 {
  %3 = getelementptr inbounds nuw i8, ptr %0, i64 144
  %4 = load ptr, ptr %3, align 8
  %5 = getelementptr inbounds nuw i8, ptr %4, i64 64
  %6 = load ptr, ptr %5, align 8
  %7 = icmp ne i32 %1, 2
  tail call void @_ZN10QTableView15setColumnHiddenEib(ptr noundef align 8 dereferenceable_or_null(40) %6, i32 noundef 1, i1 noundef zeroext %7)
  ret void
}